target datalayout = "e-m:e-p270:32:32-p271:32:32-p272:64:64-i64:64-i128:128-f80:128-n8:16:32:64-S128"
target triple = "x86_64-pc-linux-gnu"

%class.anon.4 = type { i8 }
%class.anon.6 = type { i8 }
%class.anon.8 = type { i8 }
%class.anon.10 = type { i8 }

@.str.4 = private unnamed_addr constant [132 x i8] c"generated/home/dtcxzyw/WorkSpace/Projects/compilers/llvm-opt-benchmark/bench/gromacs/gromacs/src/gromacs/gmxana/thermochemistry.cpp\00", align 1
@.str.7 = private unnamed_addr constant [16 x i8] c"temperature > 0\00", align 1
@.str.8 = private unnamed_addr constant [39 x i8] c"Temperature should be larger than zero\00", align 1
@.str.9 = private unnamed_addr constant [12 x i8] c"sigma_r > 0\00", align 1
@.str.10 = private unnamed_addr constant [43 x i8] c"Symmetry factor should be larger than zero\00", align 1
@"__PRETTY_FUNCTION__._ZZ21calcRotationalEntropyfibPKffENK3$_0clEv" = private unnamed_addr constant [107 x i8] c"auto calcRotationalEntropy(real, int, gmx_bool, const real *, real)::(anonymous class)::operator()() const\00", align 1
@.str.11 = private unnamed_addr constant [13 x i8] c"theta[0] > 0\00", align 1
@.str.12 = private unnamed_addr constant [33 x i8] c"Theta should be larger than zero\00", align 1
@.str.13 = private unnamed_addr constant [6 x i8] c"Q > 0\00", align 1
@.str.14 = private unnamed_addr constant [29 x i8] c"Q should be larger than zero\00", align 1

; Function Attrs: inlinehint mustprogress nounwind uwtable
define linkonce_odr noundef double @_ZSt3powIfiEN9__gnu_cxx9__promoteIDTplcvNS1_IT_Xsr3std12__is_integerIS2_EE7__valueEE6__typeELi0EcvNS1_IT0_Xsr3std12__is_integerIS5_EE7__valueEE6__typeELi0EEXsr3std12__is_integerIS8_EE7__valueEE6__typeES2_S5_(float noundef %0, i32 noundef %1) #3 comdat {
  %3 = alloca float, align 4
  %4 = alloca i32, align 4
  store float %0, ptr %3, align 4, !tbaa !13
  store i32 %1, ptr %4, align 4, !tbaa !8
  %5 = load float, ptr %3, align 4, !tbaa !13
  %6 = fpext float %5 to double
  %7 = load i32, ptr %4, align 4, !tbaa !8
  %8 = sitofp i32 %7 to double
  %9 = call double @pow(double noundef %6, double noundef %8) #9, !tbaa !8
  ret double %9
}

; Function Attrs: inlinehint mustprogress uwtable
define internal void @"_ZZ21calcRotationalEntropyfibPKffENK3$_3clEv"(ptr noundef nonnull align 1 dereferenceable(1) %0) #7 align 2 {
  %2 = alloca ptr, align 8
  store ptr %0, ptr %2, align 8, !tbaa !36
  call void @_ZN3gmx8internal13assertHandlerEPKcS2_S2_S2_i(ptr noundef @.str.13, ptr noundef @.str.14, ptr noundef @"__PRETTY_FUNCTION__._ZZ21calcRotationalEntropyfibPKffENK3$_0clEv", ptr noundef @.str.4, i32 noundef 176) #10
  unreachable
}

; Function Attrs: inlinehint mustprogress uwtable
define internal void @"_ZZ21calcRotationalEntropyfibPKffENK3$_2clEv"(ptr noundef nonnull align 1 dereferenceable(1) %0) #7 align 2 {
  %2 = alloca ptr, align 8
  store ptr %0, ptr %2, align 8, !tbaa !36
  call void @_ZN3gmx8internal13assertHandlerEPKcS2_S2_S2_i(ptr noundef @.str.11, ptr noundef @.str.12, ptr noundef @"__PRETTY_FUNCTION__._ZZ21calcRotationalEntropyfibPKffENK3$_0clEv", ptr noundef @.str.4, i32 noundef 169) #10
  unreachable
}

; Function Attrs: inlinehint mustprogress uwtable
define internal void @"_ZZ21calcRotationalEntropyfibPKffENK3$_1clEv"(ptr noundef nonnull align 1 dereferenceable(1) %0) #7 align 2 {
  %2 = alloca ptr, align 8
  store ptr %0, ptr %2, align 8, !tbaa !36
  call void @_ZN3gmx8internal13assertHandlerEPKcS2_S2_S2_i(ptr noundef @.str.7, ptr noundef @.str.8, ptr noundef @"__PRETTY_FUNCTION__._ZZ21calcRotationalEntropyfibPKffENK3$_0clEv", ptr noundef @.str.4, i32 noundef 162) #10
  unreachable
}

; Function Attrs: inlinehint mustprogress uwtable
define internal void @"_ZZ21calcRotationalEntropyfibPKffENK3$_0clEv"(ptr noundef nonnull align 1 dereferenceable(1) %0) #7 align 2 {
  %2 = alloca ptr, align 8
  store ptr %0, ptr %2, align 8, !tbaa !36
  call void @_ZN3gmx8internal13assertHandlerEPKcS2_S2_S2_i(ptr noundef @.str.9, ptr noundef @.str.10, ptr noundef @"__PRETTY_FUNCTION__._ZZ21calcRotationalEntropyfibPKffENK3$_0clEv", ptr noundef @.str.4, i32 noundef 161) #10
  unreachable
}

; Function Attrs: mustprogress uwtable
define noundef double @_Z21calcRotationalEntropyfibPKff(float noundef %0, i32 noundef %1, i1 noundef zeroext %2, ptr noundef %3, float noundef %4) #0 {
  %6 = alloca float, align 4
  %7 = alloca i32, align 4
  %8 = alloca i8, align 1
  %9 = alloca ptr, align 8
  %10 = alloca float, align 4
  %11 = alloca %class.anon.4, align 1
  %12 = alloca %class.anon.6, align 1
  %13 = alloca double, align 8
  %14 = alloca %class.anon.8, align 1
  %15 = alloca double, align 8
  %16 = alloca double, align 8
  %17 = alloca %class.anon.10, align 1
  %18 = alloca double, align 8
  store float %0, ptr %6, align 4, !tbaa !13
  store i32 %1, ptr %7, align 4, !tbaa !8
  %19 = zext i1 %2 to i8
  store i8 %19, ptr %8, align 1, !tbaa !27
  store ptr %3, ptr %9, align 8, !tbaa !17
  store float %4, ptr %10, align 4, !tbaa !13
  %20 = load float, ptr %10, align 4, !tbaa !13
  %21 = fcmp ogt float %20, 0.000000e+00
  call void @llvm.lifetime.start.p0(i64 1, ptr %11) #9
  br i1 %21, label %22, label %23

22:                                               ; preds = %5
  br label %24

23:                                               ; preds = %5
  call void @"_ZZ21calcRotationalEntropyfibPKffENK3$_0clEv"(ptr noundef nonnull align 1 dereferenceable(1) %11)
  br label %24

24:                                               ; preds = %23, %22
  call void @llvm.lifetime.end.p0(i64 1, ptr %11) #9
  %25 = load float, ptr %6, align 4, !tbaa !13
  %26 = fcmp ogt float %25, 0.000000e+00
  call void @llvm.lifetime.start.p0(i64 1, ptr %12) #9
  br i1 %26, label %27, label %28

27:                                               ; preds = %24
  br label %29

28:                                               ; preds = %24
  call void @"_ZZ21calcRotationalEntropyfibPKffENK3$_1clEv"(ptr noundef nonnull align 1 dereferenceable(1) %12)
  br label %29

29:                                               ; preds = %28, %27
  call void @llvm.lifetime.end.p0(i64 1, ptr %12) #9
  call void @llvm.lifetime.start.p0(i64 8, ptr %13) #9
  store double 0.000000e+00, ptr %13, align 8, !tbaa !4
  %30 = load i32, ptr %7, align 4, !tbaa !8
  %31 = icmp sgt i32 %30, 1
  br i1 %31, label %32, label %87

32:                                               ; preds = %29
  %33 = load i8, ptr %8, align 1, !tbaa !27, !range !29, !noundef !30
  %34 = trunc i8 %33 to i1
  br i1 %34, label %35, label %55

35:                                               ; preds = %32
  %36 = load ptr, ptr %9, align 8, !tbaa !17
  %37 = getelementptr inbounds float, ptr %36, i64 0
  %38 = load float, ptr %37, align 4, !tbaa !13
  %39 = fcmp ogt float %38, 0.000000e+00
  call void @llvm.lifetime.start.p0(i64 1, ptr %14) #9
  br i1 %39, label %40, label %41

40:                                               ; preds = %35
  br label %42

41:                                               ; preds = %35
  call void @"_ZZ21calcRotationalEntropyfibPKffENK3$_2clEv"(ptr noundef nonnull align 1 dereferenceable(1) %14)
  br label %42

42:                                               ; preds = %41, %40
  call void @llvm.lifetime.end.p0(i64 1, ptr %14) #9
  call void @llvm.lifetime.start.p0(i64 8, ptr %15) #9
  %43 = load float, ptr %6, align 4, !tbaa !13
  %44 = load float, ptr %10, align 4, !tbaa !13
  %45 = load ptr, ptr %9, align 8, !tbaa !17
  %46 = getelementptr inbounds float, ptr %45, i64 0
  %47 = load float, ptr %46, align 4, !tbaa !13
  %48 = fmul float %44, %47
  %49 = fdiv float %43, %48
  %50 = fpext float %49 to double
  store double %50, ptr %15, align 8, !tbaa !4
  %51 = load double, ptr %15, align 8, !tbaa !4
  %52 = call double @log(double noundef %51) #9, !tbaa !8
  %53 = fadd double %52, 1.000000e+00
  %54 = fmul double 0x4020A1013E8990BE, %53
  store double %54, ptr %13, align 8, !tbaa !4
  call void @llvm.lifetime.end.p0(i64 8, ptr %15) #9
  br label %86

55:                                               ; preds = %32
  call void @llvm.lifetime.start.p0(i64 8, ptr %16) #9
  %56 = load ptr, ptr %9, align 8, !tbaa !17
  %57 = getelementptr inbounds float, ptr %56, i64 0
  %58 = load float, ptr %57, align 4, !tbaa !13
  %59 = load ptr, ptr %9, align 8, !tbaa !17
  %60 = getelementptr inbounds float, ptr %59, i64 1
  %61 = load float, ptr %60, align 4, !tbaa !13
  %62 = fmul float %58, %61
  %63 = load ptr, ptr %9, align 8, !tbaa !17
  %64 = getelementptr inbounds float, ptr %63, i64 2
  %65 = load float, ptr %64, align 4, !tbaa !13
  %66 = fmul float %62, %65
  %67 = fpext float %66 to double
  store double %67, ptr %16, align 8, !tbaa !4
  %68 = load double, ptr %16, align 8, !tbaa !4
  %69 = fcmp ogt double %68, 0.000000e+00
  call void @llvm.lifetime.start.p0(i64 1, ptr %17) #9
  br i1 %69, label %70, label %71

70:                                               ; preds = %55
  br label %72

71:                                               ; preds = %55
  call void @"_ZZ21calcRotationalEntropyfibPKffENK3$_3clEv"(ptr noundef nonnull align 1 dereferenceable(1) %17)
  br label %72

72:                                               ; preds = %71, %70
  call void @llvm.lifetime.end.p0(i64 1, ptr %17) #9
  call void @llvm.lifetime.start.p0(i64 8, ptr %18) #9
  %73 = load float, ptr %6, align 4, !tbaa !13
  %74 = call noundef double @_ZSt3powIfiEN9__gnu_cxx9__promoteIDTplcvNS1_IT_Xsr3std12__is_integerIS2_EE7__valueEE6__typeELi0EcvNS1_IT0_Xsr3std12__is_integerIS5_EE7__valueEE6__typeELi0EEXsr3std12__is_integerIS8_EE7__valueEE6__typeES2_S5_(float noundef %73, i32 noundef 3)
  %75 = fmul double 0x400921FB54442D18, %74
  %76 = load double, ptr %16, align 8, !tbaa !4
  %77 = fdiv double %75, %76
  %78 = call double @sqrt(double noundef %77) #9, !tbaa !8
  %79 = load float, ptr %10, align 4, !tbaa !13
  %80 = fpext float %79 to double
  %81 = fdiv double %78, %80
  store double %81, ptr %18, align 8, !tbaa !4
  %82 = load double, ptr %18, align 8, !tbaa !4
  %83 = call double @log(double noundef %82) #9, !tbaa !8
  %84 = fadd double %83, 1.500000e+00
  %85 = fmul double 0x4020A1013E8990BE, %84
  store double %85, ptr %13, align 8, !tbaa !4
  call void @llvm.lifetime.end.p0(i64 8, ptr %18) #9
  call void @llvm.lifetime.end.p0(i64 8, ptr %16) #9
  br label %86

86:                                               ; preds = %72, %42
  br label %87

87:                                               ; preds = %86, %29
  %88 = load double, ptr %13, align 8, !tbaa !4
  call void @llvm.lifetime.end.p0(i64 8, ptr %13) #9
  ret double %88
}