; Function Attrs: mustprogress uwtable
define noundef double @_Z21calcRotationalEntropyfibPKff(float noundef %0, i32 noundef %1, i1 noundef zeroext %2, ptr noundef readonly captures(none) %3, float noundef %4) local_unnamed_addr #6 {
  %6 = fcmp ogt float %4, 0.000000e+00
  br i1 %6, label %8, label %7

7:                                                ; preds = %5
  tail call void @_ZN3gmx8internal13assertHandlerEPKcS2_S2_S2_i(ptr noundef nonnull @.str.9, ptr noundef nonnull @.str.10, ptr noundef nonnull @"__PRETTY_FUNCTION__._ZZ21calcRotationalEntropyfibPKffENK3$_0clEv", ptr noundef nonnull @.str.4, i32 noundef 161) #9
  unreachable

8:                                                ; preds = %5
  %9 = fcmp ogt float %0, 0.000000e+00
  br i1 %9, label %11, label %10

10:                                               ; preds = %8
  tail call void @_ZN3gmx8internal13assertHandlerEPKcS2_S2_S2_i(ptr noundef nonnull @.str.7, ptr noundef nonnull @.str.8, ptr noundef nonnull @"__PRETTY_FUNCTION__._ZZ21calcRotationalEntropyfibPKffENK3$_0clEv", ptr noundef nonnull @.str.4, i32 noundef 162) #9
  unreachable

11:                                               ; preds = %8
  %12 = icmp sgt i32 %1, 1
  br i1 %12, label %13, label %43

13:                                               ; preds = %11
  %14 = load float, ptr %3, align 4, !tbaa !8
  br i1 %2, label %15, label %22

15:                                               ; preds = %13
  %16 = fcmp ogt float %14, 0.000000e+00
  br i1 %16, label %18, label %17

17:                                               ; preds = %15
  tail call void @_ZN3gmx8internal13assertHandlerEPKcS2_S2_S2_i(ptr noundef nonnull @.str.11, ptr noundef nonnull @.str.12, ptr noundef nonnull @"__PRETTY_FUNCTION__._ZZ21calcRotationalEntropyfibPKffENK3$_0clEv", ptr noundef nonnull @.str.4, i32 noundef 169) #9
  unreachable

18:                                               ; preds = %15
  %19 = fmul float %4, %14
  %20 = fdiv float %0, %19
  %21 = fpext float %20 to double
  br label %.sink.split

22:                                               ; preds = %13
  %23 = getelementptr inbounds nuw i8, ptr %3, i64 4
  %24 = load float, ptr %23, align 4, !tbaa !8
  %25 = fmul float %14, %24
  %26 = getelementptr inbounds nuw i8, ptr %3, i64 8
  %27 = load float, ptr %26, align 4, !tbaa !8
  %28 = fmul float %25, %27
  %29 = fcmp ogt float %28, 0.000000e+00
  br i1 %29, label %31, label %30

30:                                               ; preds = %22
  tail call void @_ZN3gmx8internal13assertHandlerEPKcS2_S2_S2_i(ptr noundef nonnull @.str.13, ptr noundef nonnull @.str.14, ptr noundef nonnull @"__PRETTY_FUNCTION__._ZZ21calcRotationalEntropyfibPKffENK3$_0clEv", ptr noundef nonnull @.str.4, i32 noundef 176) #9
  unreachable

31:                                               ; preds = %22
  %32 = fpext float %28 to double
  %33 = fpext float %0 to double
  %34 = tail call noundef double @pow(double noundef %33, double noundef 3.000000e+00) #8, !tbaa !4
  %35 = fmul double %34, 0x400921FB54442D18
  %36 = fdiv double %35, %32
  %37 = tail call double @sqrt(double noundef %36) #8, !tbaa !4
  %38 = fpext float %4 to double
  %39 = fdiv double %37, %38
  br label %.sink.split

.sink.split:                                      ; preds = %31, %18
  %.sink = phi double [ %21, %18 ], [ %39, %31 ]
  %.sink21 = phi double [ 1.000000e+00, %18 ], [ 1.500000e+00, %31 ]
  %40 = tail call double @log(double noundef %.sink) #8, !tbaa !4
  %41 = fadd double %40, %.sink21
  %42 = fmul double %41, 0x4020A1013E8990BE
  br label %43

43:                                               ; preds = %.sink.split, %11
  %.0 = phi double [ 0.000000e+00, %11 ], [ %42, %.sink.split ]
  ret double %.0
}